Archive member included to satisfy reference by file (symbol)

/opt/riscv32i/lib/gcc/riscv32-unknown-elf/8.2.0/libgcc.a(_divdi3.o)
                              firmware/multest.o (__divdi3)
/opt/riscv32i/lib/gcc/riscv32-unknown-elf/8.2.0/libgcc.a(_moddi3.o)
                              firmware/multest.o (__moddi3)
/opt/riscv32i/lib/gcc/riscv32-unknown-elf/8.2.0/libgcc.a(_udivdi3.o)
                              firmware/multest.o (__udivdi3)
/opt/riscv32i/lib/gcc/riscv32-unknown-elf/8.2.0/libgcc.a(_umoddi3.o)
                              firmware/multest.o (__umoddi3)
/opt/riscv32i/lib/gcc/riscv32-unknown-elf/8.2.0/libgcc.a(muldi3.o)
                              firmware/multest.o (__mulsi3)
/opt/riscv32i/lib/gcc/riscv32-unknown-elf/8.2.0/libgcc.a(multi3.o)
                              firmware/multest.o (__muldi3)
/opt/riscv32i/lib/gcc/riscv32-unknown-elf/8.2.0/libgcc.a(div.o)
                              /opt/riscv32i/lib/gcc/riscv32-unknown-elf/8.2.0/libgcc.a(_divdi3.o) (__divsi3)
/opt/riscv32i/lib/gcc/riscv32-unknown-elf/8.2.0/libgcc.a(_clz.o)
                              /opt/riscv32i/lib/gcc/riscv32-unknown-elf/8.2.0/libgcc.a(_divdi3.o) (__clz_tab)

Discarded input sections

 .debug_info    0x0000000000000000     0x1348 /opt/riscv32i/lib/gcc/riscv32-unknown-elf/8.2.0/libgcc.a(_divdi3.o)
 .debug_abbrev  0x0000000000000000      0x2f8 /opt/riscv32i/lib/gcc/riscv32-unknown-elf/8.2.0/libgcc.a(_divdi3.o)
 .debug_loc     0x0000000000000000      0x97b /opt/riscv32i/lib/gcc/riscv32-unknown-elf/8.2.0/libgcc.a(_divdi3.o)
 .debug_aranges
                0x0000000000000000       0x20 /opt/riscv32i/lib/gcc/riscv32-unknown-elf/8.2.0/libgcc.a(_divdi3.o)
 .debug_ranges  0x0000000000000000       0xf8 /opt/riscv32i/lib/gcc/riscv32-unknown-elf/8.2.0/libgcc.a(_divdi3.o)
 .debug_line    0x0000000000000000      0x9cb /opt/riscv32i/lib/gcc/riscv32-unknown-elf/8.2.0/libgcc.a(_divdi3.o)
 .debug_str     0x0000000000000000      0x81e /opt/riscv32i/lib/gcc/riscv32-unknown-elf/8.2.0/libgcc.a(_divdi3.o)
 .debug_info    0x0000000000000000     0x1383 /opt/riscv32i/lib/gcc/riscv32-unknown-elf/8.2.0/libgcc.a(_moddi3.o)
 .debug_abbrev  0x0000000000000000      0x2ef /opt/riscv32i/lib/gcc/riscv32-unknown-elf/8.2.0/libgcc.a(_moddi3.o)
 .debug_loc     0x0000000000000000      0x8f8 /opt/riscv32i/lib/gcc/riscv32-unknown-elf/8.2.0/libgcc.a(_moddi3.o)
 .debug_aranges
                0x0000000000000000       0x20 /opt/riscv32i/lib/gcc/riscv32-unknown-elf/8.2.0/libgcc.a(_moddi3.o)
 .debug_ranges  0x0000000000000000       0xe0 /opt/riscv32i/lib/gcc/riscv32-unknown-elf/8.2.0/libgcc.a(_moddi3.o)
 .debug_line    0x0000000000000000      0x9e9 /opt/riscv32i/lib/gcc/riscv32-unknown-elf/8.2.0/libgcc.a(_moddi3.o)
 .debug_str     0x0000000000000000      0x81e /opt/riscv32i/lib/gcc/riscv32-unknown-elf/8.2.0/libgcc.a(_moddi3.o)
 .debug_info    0x0000000000000000     0x1312 /opt/riscv32i/lib/gcc/riscv32-unknown-elf/8.2.0/libgcc.a(_udivdi3.o)
 .debug_abbrev  0x0000000000000000      0x2e0 /opt/riscv32i/lib/gcc/riscv32-unknown-elf/8.2.0/libgcc.a(_udivdi3.o)
 .debug_loc     0x0000000000000000      0xb94 /opt/riscv32i/lib/gcc/riscv32-unknown-elf/8.2.0/libgcc.a(_udivdi3.o)
 .debug_aranges
                0x0000000000000000       0x20 /opt/riscv32i/lib/gcc/riscv32-unknown-elf/8.2.0/libgcc.a(_udivdi3.o)
 .debug_ranges  0x0000000000000000      0x110 /opt/riscv32i/lib/gcc/riscv32-unknown-elf/8.2.0/libgcc.a(_udivdi3.o)
 .debug_line    0x0000000000000000      0x904 /opt/riscv32i/lib/gcc/riscv32-unknown-elf/8.2.0/libgcc.a(_udivdi3.o)
 .debug_str     0x0000000000000000      0x81f /opt/riscv32i/lib/gcc/riscv32-unknown-elf/8.2.0/libgcc.a(_udivdi3.o)
 .debug_info    0x0000000000000000     0x135c /opt/riscv32i/lib/gcc/riscv32-unknown-elf/8.2.0/libgcc.a(_umoddi3.o)
 .debug_abbrev  0x0000000000000000      0x2e8 /opt/riscv32i/lib/gcc/riscv32-unknown-elf/8.2.0/libgcc.a(_umoddi3.o)
 .debug_loc     0x0000000000000000      0x905 /opt/riscv32i/lib/gcc/riscv32-unknown-elf/8.2.0/libgcc.a(_umoddi3.o)
 .debug_aranges
                0x0000000000000000       0x20 /opt/riscv32i/lib/gcc/riscv32-unknown-elf/8.2.0/libgcc.a(_umoddi3.o)
 .debug_ranges  0x0000000000000000       0xe8 /opt/riscv32i/lib/gcc/riscv32-unknown-elf/8.2.0/libgcc.a(_umoddi3.o)
 .debug_line    0x0000000000000000      0x932 /opt/riscv32i/lib/gcc/riscv32-unknown-elf/8.2.0/libgcc.a(_umoddi3.o)
 .debug_str     0x0000000000000000      0x81f /opt/riscv32i/lib/gcc/riscv32-unknown-elf/8.2.0/libgcc.a(_umoddi3.o)
 .debug_line    0x0000000000000000       0x93 /opt/riscv32i/lib/gcc/riscv32-unknown-elf/8.2.0/libgcc.a(muldi3.o)
 .debug_info    0x0000000000000000       0x26 /opt/riscv32i/lib/gcc/riscv32-unknown-elf/8.2.0/libgcc.a(muldi3.o)
 .debug_abbrev  0x0000000000000000       0x14 /opt/riscv32i/lib/gcc/riscv32-unknown-elf/8.2.0/libgcc.a(muldi3.o)
 .debug_aranges
                0x0000000000000000       0x20 /opt/riscv32i/lib/gcc/riscv32-unknown-elf/8.2.0/libgcc.a(muldi3.o)
 .debug_str     0x0000000000000000       0xa6 /opt/riscv32i/lib/gcc/riscv32-unknown-elf/8.2.0/libgcc.a(muldi3.o)
 .debug_info    0x0000000000000000      0xcea /opt/riscv32i/lib/gcc/riscv32-unknown-elf/8.2.0/libgcc.a(multi3.o)
 .debug_abbrev  0x0000000000000000      0x26f /opt/riscv32i/lib/gcc/riscv32-unknown-elf/8.2.0/libgcc.a(multi3.o)
 .debug_loc     0x0000000000000000      0x176 /opt/riscv32i/lib/gcc/riscv32-unknown-elf/8.2.0/libgcc.a(multi3.o)
 .debug_aranges
                0x0000000000000000       0x20 /opt/riscv32i/lib/gcc/riscv32-unknown-elf/8.2.0/libgcc.a(multi3.o)
 .debug_line    0x0000000000000000      0x406 /opt/riscv32i/lib/gcc/riscv32-unknown-elf/8.2.0/libgcc.a(multi3.o)
 .debug_str     0x0000000000000000      0x7f2 /opt/riscv32i/lib/gcc/riscv32-unknown-elf/8.2.0/libgcc.a(multi3.o)
 .debug_frame   0x0000000000000000       0x2c /opt/riscv32i/lib/gcc/riscv32-unknown-elf/8.2.0/libgcc.a(multi3.o)
 .debug_line    0x0000000000000000      0x169 /opt/riscv32i/lib/gcc/riscv32-unknown-elf/8.2.0/libgcc.a(div.o)
 .debug_info    0x0000000000000000       0x26 /opt/riscv32i/lib/gcc/riscv32-unknown-elf/8.2.0/libgcc.a(div.o)
 .debug_abbrev  0x0000000000000000       0x14 /opt/riscv32i/lib/gcc/riscv32-unknown-elf/8.2.0/libgcc.a(div.o)
 .debug_aranges
                0x0000000000000000       0x20 /opt/riscv32i/lib/gcc/riscv32-unknown-elf/8.2.0/libgcc.a(div.o)
 .debug_str     0x0000000000000000       0xa3 /opt/riscv32i/lib/gcc/riscv32-unknown-elf/8.2.0/libgcc.a(div.o)
 .debug_info    0x0000000000000000      0xb3f /opt/riscv32i/lib/gcc/riscv32-unknown-elf/8.2.0/libgcc.a(_clz.o)
 .debug_abbrev  0x0000000000000000      0x1e8 /opt/riscv32i/lib/gcc/riscv32-unknown-elf/8.2.0/libgcc.a(_clz.o)
 .debug_aranges
                0x0000000000000000       0x18 /opt/riscv32i/lib/gcc/riscv32-unknown-elf/8.2.0/libgcc.a(_clz.o)
 .debug_line    0x0000000000000000      0x1f2 /opt/riscv32i/lib/gcc/riscv32-unknown-elf/8.2.0/libgcc.a(_clz.o)
 .debug_str     0x0000000000000000      0x75a /opt/riscv32i/lib/gcc/riscv32-unknown-elf/8.2.0/libgcc.a(_clz.o)

Memory Configuration

Name             Origin             Length             Attributes
mem              0x0000000000000000 0x0000000000018000
*default*        0x0000000000000000 0xffffffffffffffff

Linker script and memory map


.memory         0x0000000000000000     0xc898
                0x0000000000000000                . = 0x0
 start*(.text)
 *(.text)
 .text          0x0000000000000000      0x89a firmware/start.o
                0x0000000000000510                lui_ret
                0x000000000000051c                auipc_ret
                0x0000000000000528                j_ret
                0x0000000000000534                jal_ret
                0x0000000000000540                jalr_ret
                0x000000000000054c                beq_ret
                0x0000000000000558                bne_ret
                0x0000000000000564                blt_ret
                0x0000000000000570                bge_ret
                0x000000000000057c                bltu_ret
                0x0000000000000588                bgeu_ret
                0x0000000000000594                lb_ret
                0x00000000000005a0                lh_ret
                0x00000000000005ac                lw_ret
                0x00000000000005b8                lbu_ret
                0x00000000000005c4                lhu_ret
                0x00000000000005d0                sb_ret
                0x00000000000005dc                sh_ret
                0x00000000000005e8                sw_ret
                0x00000000000005f4                addi_ret
                0x0000000000000600                slti_ret
                0x000000000000060c                xori_ret
                0x0000000000000618                ori_ret
                0x0000000000000624                andi_ret
                0x0000000000000630                slli_ret
                0x000000000000063c                srli_ret
                0x0000000000000648                srai_ret
                0x0000000000000654                add_ret
                0x0000000000000660                sub_ret
                0x000000000000066c                sll_ret
                0x0000000000000678                slt_ret
                0x0000000000000684                xor_ret
                0x0000000000000690                srl_ret
                0x000000000000069c                sra_ret
                0x00000000000006a8                or_ret
                0x00000000000006b4                and_ret
                0x00000000000006c0                mulh_ret
                0x00000000000006cc                mulhsu_ret
                0x00000000000006d8                mulhu_ret
                0x00000000000006e4                mul_ret
                0x00000000000006f0                div_ret
                0x00000000000006fc                divu_ret
                0x0000000000000708                rem_ret
                0x0000000000000714                remu_ret
                0x0000000000000720                simple_ret
                0x000000000000076e                hard_mul
                0x0000000000000774                hard_mulh
                0x000000000000077a                hard_mulhsu
                0x0000000000000780                hard_mulhu
                0x0000000000000786                hard_div
                0x000000000000078c                hard_divu
                0x0000000000000792                hard_rem
                0x0000000000000798                hard_remu
 .text          0x000000000000089a      0x2b8 firmware/irq.o
                0x000000000000089a                irq
 .text          0x0000000000000b52       0x92 firmware/print.o
                0x0000000000000b52                print_chr
                0x0000000000000b5a                print_str
                0x0000000000000b6c                print_dec
                0x0000000000000bbc                print_hex
 .text          0x0000000000000be4        0xa firmware/hello.o
                0x0000000000000be4                hello
 .text          0x0000000000000bee      0x198 firmware/sieve.o
                0x0000000000000c96                sieve
 .text          0x0000000000000d86      0x2e4 firmware/multest.o
                0x0000000000000da4                multest
 .text          0x000000000000106a      0x126 firmware/stats.o
                0x00000000000010fe                stats
 *fill*         0x0000000000001190        0x0 
 .text          0x0000000000001190      0x268 tests/xori.o
                0x0000000000001190                xori
 .text          0x00000000000013f8      0x544 tests/or.o
                0x00000000000013f8                or
 .text          0x000000000000193c      0x540 tests/xor.o
                0x000000000000193c                xor
 .text          0x0000000000001e7c      0x4f8 tests/sh.o
                0x0000000000001e7c                sh
 .text          0x0000000000002374      0x244 tests/andi.o
                0x0000000000002374                andi
 .text          0x00000000000025b8      0x540 tests/sub.o
                0x00000000000025b8                sub
 .text          0x0000000000002af8      0x5ec tests/sll.o
                0x0000000000002af8                sll
 .text          0x00000000000030e4      0x2cc tests/lb.o
                0x00000000000030e4                lb
 .text          0x00000000000033b0      0x2ec tests/lh.o
                0x00000000000033b0                lh
 .text          0x000000000000369c      0x538 tests/and.o
                0x000000000000369c                and
 .text          0x0000000000003bd4      0x33c tests/srai.o
                0x0000000000003bd4                srai
 .text          0x0000000000003f10      0x378 tests/bltu.o
                0x0000000000003f10                bltu
 .text          0x0000000000004288      0x30c tests/addi.o
                0x0000000000004288                addi
 .text          0x0000000000004594      0x54c tests/mulhu.o
                0x0000000000004594                mulhu
 .text          0x0000000000004ae0      0x2f8 tests/slti.o
                0x0000000000004ae0                slti
 .text          0x0000000000004dd8      0x61c tests/sra.o
                0x0000000000004dd8                sra
 .text          0x00000000000053f4      0x338 tests/srli.o
                0x00000000000053f4                srli
 .text          0x000000000000572c      0x15c tests/div.o
                0x000000000000572c                div
 .text          0x0000000000005888      0x340 tests/beq.o
                0x0000000000005888                beq
 .text          0x0000000000005bc8      0x504 tests/sw.o
                0x0000000000005bc8                sw
 .text          0x00000000000060cc      0x3d8 tests/bgeu.o
                0x00000000000060cc                bgeu
 .text          0x00000000000064a4      0x184 tests/jalr.o
                0x00000000000064a4                jalr
 .text          0x0000000000006628      0x30c tests/lw.o
                0x0000000000006628                lw
 .text          0x0000000000006934      0x164 tests/divu.o
                0x0000000000006934                divu
 .text          0x0000000000006a98      0x63c tests/srl.o
                0x0000000000006a98                srl
 *fill*         0x00000000000070d4        0x4 
 .text          0x00000000000070d8       0xcc tests/auipc.o
                0x00000000000070d8                auipc
 .text          0x00000000000071a4      0x548 tests/slt.o
                0x00000000000071a4                slt
 .text          0x00000000000076ec      0x2cc tests/lbu.o
                0x00000000000076ec                lbu
 .text          0x00000000000079b8      0x300 tests/lhu.o
                0x00000000000079b8                lhu
 .text          0x0000000000007cb8       0xe0 tests/lui.o
                0x0000000000007cb8                lui
 .text          0x0000000000007d98       0x54 tests/simple.o
                0x0000000000007d98                simple
 .text          0x0000000000007dec      0x340 tests/blt.o
                0x0000000000007dec                blt
 .text          0x000000000000812c      0x160 tests/remu.o
                0x000000000000812c                remu
 .text          0x000000000000828c      0x25c tests/ori.o
                0x000000000000828c                ori
 .text          0x00000000000084e8      0x54c tests/mulh.o
                0x00000000000084e8                mulh
 .text          0x0000000000008a34       0xd8 tests/jal.o
                0x0000000000008a34                jal
 .text          0x0000000000008b0c      0x548 tests/mul.o
                0x0000000000008b0c                mul
 .text          0x0000000000009054      0x560 tests/add.o
                0x0000000000009054                add
 .text          0x00000000000095b4      0x474 tests/sb.o
                0x00000000000095b4                sb
 .text          0x0000000000009a28      0x308 tests/slli.o
                0x0000000000009a28                slli
 .text          0x0000000000009d30       0xbc tests/j.o
                0x0000000000009d30                j
 .text          0x0000000000009dec      0x344 tests/bne.o
                0x0000000000009dec                bne
 .text          0x000000000000a130      0x3a0 tests/bge.o
                0x000000000000a130                bge
 .text          0x000000000000a4d0      0x15c tests/rem.o
                0x000000000000a4d0                rem
 .text          0x000000000000a62c      0x54c tests/mulhsu.o
                0x000000000000a62c                mulhsu
 .text          0x000000000000ab78      0x624 /opt/riscv32i/lib/gcc/riscv32-unknown-elf/8.2.0/libgcc.a(_divdi3.o)
                0x000000000000ab78                __divdi3
 .text          0x000000000000b19c      0x548 /opt/riscv32i/lib/gcc/riscv32-unknown-elf/8.2.0/libgcc.a(_moddi3.o)
                0x000000000000b19c                __moddi3
 .text          0x000000000000b6e4      0x5d4 /opt/riscv32i/lib/gcc/riscv32-unknown-elf/8.2.0/libgcc.a(_udivdi3.o)
                0x000000000000b6e4                __udivdi3
 .text          0x000000000000bcb8      0x4f0 /opt/riscv32i/lib/gcc/riscv32-unknown-elf/8.2.0/libgcc.a(_umoddi3.o)
                0x000000000000bcb8                __umoddi3
 .text          0x000000000000c1a8       0x24 /opt/riscv32i/lib/gcc/riscv32-unknown-elf/8.2.0/libgcc.a(muldi3.o)
                0x000000000000c1a8                __mulsi3
 .text          0x000000000000c1cc       0x90 /opt/riscv32i/lib/gcc/riscv32-unknown-elf/8.2.0/libgcc.a(multi3.o)
                0x000000000000c1cc                __muldi3
 .text          0x000000000000c25c       0xb4 /opt/riscv32i/lib/gcc/riscv32-unknown-elf/8.2.0/libgcc.a(div.o)
                0x000000000000c25c                __divsi3
                0x000000000000c264                __udivsi3
                0x000000000000c2ac                __umodsi3
                0x000000000000c2e0                __modsi3
 .text          0x000000000000c310        0x0 /opt/riscv32i/lib/gcc/riscv32-unknown-elf/8.2.0/libgcc.a(_clz.o)
 *(*)
 .data          0x000000000000c310        0x0 firmware/start.o
 .bss           0x000000000000c310        0x0 firmware/start.o
 .data          0x000000000000c310        0x0 firmware/irq.o
 .bss           0x000000000000c310        0x0 firmware/irq.o
 .rodata.str1.4
                0x000000000000c310      0x167 firmware/irq.o
                                        0x16b (size before relaxing)
 *fill*         0x000000000000c477        0x1 
 .sbss          0x000000000000c478        0xc firmware/irq.o
 .comment       0x000000000000c484       0x11 firmware/irq.o
                                         0x12 (size before relaxing)
 .data          0x000000000000c495        0x0 firmware/print.o
 .bss           0x000000000000c495        0x0 firmware/print.o
 *fill*         0x000000000000c495        0x3 
 .rodata.str1.4
                0x000000000000c498       0x11 firmware/print.o
 .comment       0x000000000000c4a9       0x12 firmware/print.o
 .data          0x000000000000c4a9        0x0 firmware/hello.o
 .bss           0x000000000000c4a9        0x0 firmware/hello.o
 *fill*         0x000000000000c4a9        0x3 
 .rodata.str1.4
                0x000000000000c4ac        0xd firmware/hello.o
 .comment       0x000000000000c4b9       0x12 firmware/hello.o
 .data          0x000000000000c4b9        0x0 firmware/sieve.o
 .bss           0x000000000000c4b9        0x0 firmware/sieve.o
 *fill*         0x000000000000c4b9        0x3 
 .rodata.str1.4
                0x000000000000c4bc       0x40 firmware/sieve.o
 .sbss          0x000000000000c4fc        0xc firmware/sieve.o
 .comment       0x000000000000c508       0x12 firmware/sieve.o
 .data          0x000000000000c508        0x0 firmware/multest.o
 .bss           0x000000000000c508        0x0 firmware/multest.o
 .rodata.str1.4
                0x000000000000c508       0x50 firmware/multest.o
                                         0x58 (size before relaxing)
 .sdata         0x000000000000c558        0x4 firmware/multest.o
 .comment       0x000000000000c55c       0x12 firmware/multest.o
 .data          0x000000000000c55c        0x0 firmware/stats.o
 .bss           0x000000000000c55c        0x0 firmware/stats.o
 .rodata.str1.4
                0x000000000000c55c       0x3c firmware/stats.o
                                         0x3e (size before relaxing)
 .comment       0x000000000000c598       0x12 firmware/stats.o
 .data          0x000000000000c598        0x0 tests/xori.o
 .bss           0x000000000000c598        0x0 tests/xori.o
 .data          0x000000000000c598        0x0 tests/or.o
 .bss           0x000000000000c598        0x0 tests/or.o
 .data          0x000000000000c598        0x0 tests/xor.o
 .bss           0x000000000000c598        0x0 tests/xor.o
 .data          0x000000000000c598       0x14 tests/sh.o
 .bss           0x000000000000c5ac        0x0 tests/sh.o
 .data          0x000000000000c5ac        0x0 tests/andi.o
 .bss           0x000000000000c5ac        0x0 tests/andi.o
 .data          0x000000000000c5ac        0x0 tests/sub.o
 .bss           0x000000000000c5ac        0x0 tests/sub.o
 .data          0x000000000000c5ac        0x0 tests/sll.o
 .bss           0x000000000000c5ac        0x0 tests/sll.o
 .data          0x000000000000c5ac        0x4 tests/lb.o
 .bss           0x000000000000c5b0        0x0 tests/lb.o
 .data          0x000000000000c5b0        0x8 tests/lh.o
 .bss           0x000000000000c5b8        0x0 tests/lh.o
 .data          0x000000000000c5b8        0x0 tests/and.o
 .bss           0x000000000000c5b8        0x0 tests/and.o
 .data          0x000000000000c5b8        0x0 tests/srai.o
 .bss           0x000000000000c5b8        0x0 tests/srai.o
 .data          0x000000000000c5b8        0x0 tests/bltu.o
 .bss           0x000000000000c5b8        0x0 tests/bltu.o
 .data          0x000000000000c5b8        0x0 tests/addi.o
 .bss           0x000000000000c5b8        0x0 tests/addi.o
 .data          0x000000000000c5b8        0x0 tests/mulhu.o
 .bss           0x000000000000c5b8        0x0 tests/mulhu.o
 .data          0x000000000000c5b8        0x0 tests/slti.o
 .bss           0x000000000000c5b8        0x0 tests/slti.o
 .data          0x000000000000c5b8        0x0 tests/sra.o
 .bss           0x000000000000c5b8        0x0 tests/sra.o
 .data          0x000000000000c5b8        0x0 tests/srli.o
 .bss           0x000000000000c5b8        0x0 tests/srli.o
 .data          0x000000000000c5b8        0x0 tests/div.o
 .bss           0x000000000000c5b8        0x0 tests/div.o
 .data          0x000000000000c5b8        0x0 tests/beq.o
 .bss           0x000000000000c5b8        0x0 tests/beq.o
 .data          0x000000000000c5b8       0x28 tests/sw.o
 .bss           0x000000000000c5e0        0x0 tests/sw.o
 .data          0x000000000000c5e0        0x0 tests/bgeu.o
 .bss           0x000000000000c5e0        0x0 tests/bgeu.o
 .data          0x000000000000c5e0        0x0 tests/jalr.o
 .bss           0x000000000000c5e0        0x0 tests/jalr.o
 .data          0x000000000000c5e0       0x10 tests/lw.o
 .bss           0x000000000000c5f0        0x0 tests/lw.o
 .data          0x000000000000c5f0        0x0 tests/divu.o
 .bss           0x000000000000c5f0        0x0 tests/divu.o
 .data          0x000000000000c5f0        0x0 tests/srl.o
 .bss           0x000000000000c5f0        0x0 tests/srl.o
 .data          0x000000000000c5f0        0x0 tests/auipc.o
 .bss           0x000000000000c5f0        0x0 tests/auipc.o
 .data          0x000000000000c5f0        0x0 tests/slt.o
 .bss           0x000000000000c5f0        0x0 tests/slt.o
 .data          0x000000000000c5f0        0x4 tests/lbu.o
 .bss           0x000000000000c5f4        0x0 tests/lbu.o
 .data          0x000000000000c5f4        0x8 tests/lhu.o
 .bss           0x000000000000c5fc        0x0 tests/lhu.o
 .data          0x000000000000c5fc        0x0 tests/lui.o
 .bss           0x000000000000c5fc        0x0 tests/lui.o
 .data          0x000000000000c5fc        0x0 tests/simple.o
 .bss           0x000000000000c5fc        0x0 tests/simple.o
 .data          0x000000000000c5fc        0x0 tests/blt.o
 .bss           0x000000000000c5fc        0x0 tests/blt.o
 .data          0x000000000000c5fc        0x0 tests/remu.o
 .bss           0x000000000000c5fc        0x0 tests/remu.o
 .data          0x000000000000c5fc        0x0 tests/ori.o
 .bss           0x000000000000c5fc        0x0 tests/ori.o
 .data          0x000000000000c5fc        0x0 tests/mulh.o
 .bss           0x000000000000c5fc        0x0 tests/mulh.o
 .data          0x000000000000c5fc        0x0 tests/jal.o
 .bss           0x000000000000c5fc        0x0 tests/jal.o
 .data          0x000000000000c5fc        0x0 tests/mul.o
 .bss           0x000000000000c5fc        0x0 tests/mul.o
 .data          0x000000000000c5fc        0x0 tests/add.o
 .bss           0x000000000000c5fc        0x0 tests/add.o
 .data          0x000000000000c5fc        0xa tests/sb.o
 .bss           0x000000000000c606        0x0 tests/sb.o
 *fill*         0x000000000000c606        0x2 
 .data          0x000000000000c608        0x0 tests/slli.o
 .bss           0x000000000000c608        0x0 tests/slli.o
 .data          0x000000000000c608        0x0 tests/j.o
 .bss           0x000000000000c608        0x0 tests/j.o
 .data          0x000000000000c608        0x0 tests/bne.o
 .bss           0x000000000000c608        0x0 tests/bne.o
 .data          0x000000000000c608        0x0 tests/bge.o
 .bss           0x000000000000c608        0x0 tests/bge.o
 .data          0x000000000000c608        0x0 tests/rem.o
 .bss           0x000000000000c608        0x0 tests/rem.o
 .data          0x000000000000c608        0x0 tests/mulhsu.o
 .bss           0x000000000000c608        0x0 tests/mulhsu.o
 .data          0x000000000000c608        0x0 /opt/riscv32i/lib/gcc/riscv32-unknown-elf/8.2.0/libgcc.a(_divdi3.o)
 .bss           0x000000000000c608        0x0 /opt/riscv32i/lib/gcc/riscv32-unknown-elf/8.2.0/libgcc.a(_divdi3.o)
 .comment       0x000000000000c608       0x12 /opt/riscv32i/lib/gcc/riscv32-unknown-elf/8.2.0/libgcc.a(_divdi3.o)
 .eh_frame      0x000000000000c608       0x64 /opt/riscv32i/lib/gcc/riscv32-unknown-elf/8.2.0/libgcc.a(_divdi3.o)
 .data          0x000000000000c66c        0x0 /opt/riscv32i/lib/gcc/riscv32-unknown-elf/8.2.0/libgcc.a(_moddi3.o)
 .bss           0x000000000000c66c        0x0 /opt/riscv32i/lib/gcc/riscv32-unknown-elf/8.2.0/libgcc.a(_moddi3.o)
 .comment       0x000000000000c66c       0x12 /opt/riscv32i/lib/gcc/riscv32-unknown-elf/8.2.0/libgcc.a(_moddi3.o)
 .eh_frame      0x000000000000c66c       0x68 /opt/riscv32i/lib/gcc/riscv32-unknown-elf/8.2.0/libgcc.a(_moddi3.o)
 .data          0x000000000000c6d4        0x0 /opt/riscv32i/lib/gcc/riscv32-unknown-elf/8.2.0/libgcc.a(_udivdi3.o)
 .bss           0x000000000000c6d4        0x0 /opt/riscv32i/lib/gcc/riscv32-unknown-elf/8.2.0/libgcc.a(_udivdi3.o)
 .comment       0x000000000000c6d4       0x12 /opt/riscv32i/lib/gcc/riscv32-unknown-elf/8.2.0/libgcc.a(_udivdi3.o)
 .eh_frame      0x000000000000c6d4       0x60 /opt/riscv32i/lib/gcc/riscv32-unknown-elf/8.2.0/libgcc.a(_udivdi3.o)
 .data          0x000000000000c734        0x0 /opt/riscv32i/lib/gcc/riscv32-unknown-elf/8.2.0/libgcc.a(_umoddi3.o)
 .bss           0x000000000000c734        0x0 /opt/riscv32i/lib/gcc/riscv32-unknown-elf/8.2.0/libgcc.a(_umoddi3.o)
 .comment       0x000000000000c734       0x12 /opt/riscv32i/lib/gcc/riscv32-unknown-elf/8.2.0/libgcc.a(_umoddi3.o)
 .eh_frame      0x000000000000c734       0x64 /opt/riscv32i/lib/gcc/riscv32-unknown-elf/8.2.0/libgcc.a(_umoddi3.o)
 .data          0x000000000000c798        0x0 /opt/riscv32i/lib/gcc/riscv32-unknown-elf/8.2.0/libgcc.a(muldi3.o)
 .bss           0x000000000000c798        0x0 /opt/riscv32i/lib/gcc/riscv32-unknown-elf/8.2.0/libgcc.a(muldi3.o)
 .data          0x000000000000c798        0x0 /opt/riscv32i/lib/gcc/riscv32-unknown-elf/8.2.0/libgcc.a(multi3.o)
 .bss           0x000000000000c798        0x0 /opt/riscv32i/lib/gcc/riscv32-unknown-elf/8.2.0/libgcc.a(multi3.o)
 .comment       0x000000000000c798       0x12 /opt/riscv32i/lib/gcc/riscv32-unknown-elf/8.2.0/libgcc.a(multi3.o)
 .data          0x000000000000c798        0x0 /opt/riscv32i/lib/gcc/riscv32-unknown-elf/8.2.0/libgcc.a(div.o)
 .bss           0x000000000000c798        0x0 /opt/riscv32i/lib/gcc/riscv32-unknown-elf/8.2.0/libgcc.a(div.o)
 .data          0x000000000000c798        0x0 /opt/riscv32i/lib/gcc/riscv32-unknown-elf/8.2.0/libgcc.a(_clz.o)
 .bss           0x000000000000c798        0x0 /opt/riscv32i/lib/gcc/riscv32-unknown-elf/8.2.0/libgcc.a(_clz.o)
 .rodata        0x000000000000c798      0x100 /opt/riscv32i/lib/gcc/riscv32-unknown-elf/8.2.0/libgcc.a(_clz.o)
                0x000000000000c798                __clz_tab
 .comment       0x000000000000c898       0x12 /opt/riscv32i/lib/gcc/riscv32-unknown-elf/8.2.0/libgcc.a(_clz.o)
                0x000000000000c8aa                end = .
                0x000000000000c8ac                . = ALIGN (0x4)
LOAD firmware/start.o
LOAD firmware/irq.o
LOAD firmware/print.o
LOAD firmware/hello.o
LOAD firmware/sieve.o
LOAD firmware/multest.o
LOAD firmware/stats.o
LOAD tests/xori.o
LOAD tests/or.o
LOAD tests/xor.o
LOAD tests/sh.o
LOAD tests/andi.o
LOAD tests/sub.o
LOAD tests/sll.o
LOAD tests/lb.o
LOAD tests/lh.o
LOAD tests/and.o
LOAD tests/srai.o
LOAD tests/bltu.o
LOAD tests/addi.o
LOAD tests/mulhu.o
LOAD tests/slti.o
LOAD tests/sra.o
LOAD tests/srli.o
LOAD tests/div.o
LOAD tests/beq.o
LOAD tests/sw.o
LOAD tests/bgeu.o
LOAD tests/jalr.o
LOAD tests/lw.o
LOAD tests/divu.o
LOAD tests/srl.o
LOAD tests/auipc.o
LOAD tests/slt.o
LOAD tests/lbu.o
LOAD tests/lhu.o
LOAD tests/lui.o
LOAD tests/simple.o
LOAD tests/blt.o
LOAD tests/remu.o
LOAD tests/ori.o
LOAD tests/mulh.o
LOAD tests/jal.o
LOAD tests/mul.o
LOAD tests/add.o
LOAD tests/sb.o
LOAD tests/slli.o
LOAD tests/j.o
LOAD tests/bne.o
LOAD tests/bge.o
LOAD tests/rem.o
LOAD tests/mulhsu.o
LOAD /opt/riscv32i/lib/gcc/riscv32-unknown-elf/8.2.0/libgcc.a
OUTPUT(firmware/firmware.elf elf32-littleriscv)
